target datalayout = "e-m:e-p270:32:32-p271:32:32-p272:64:64-i64:64-i128:128-f80:128-n8:16:32:64-S128"
target triple = "x86_64-pc-linux-gnu"

%struct.VariableStatData = type { ptr, ptr, ptr, ptr, i32, i32, i32, i8, i8 }
%struct.List = type { i32, i32, i32, ptr, [0 x %union.ListCell] }
%union.ListCell = type { ptr }

; Function Attrs: inlinehint nounwind uwtable
define internal ptr @list_nth_cell(ptr noundef %0, i32 noundef %1) #1 {
  %3 = alloca ptr, align 8
  %4 = alloca i32, align 4
  store ptr %0, ptr %3, align 8
  store i32 %1, ptr %4, align 4
  %5 = load ptr, ptr %3, align 8
  %6 = getelementptr inbounds nuw %struct.List, ptr %5, i32 0, i32 3
  %7 = load ptr, ptr %6, align 8
  %8 = load i32, ptr %4, align 4
  %9 = sext i32 %8 to i64
  %10 = getelementptr inbounds %union.ListCell, ptr %7, i64 %9
  ret ptr %10
}

; Function Attrs: inlinehint nounwind uwtable
define internal i32 @list_length(ptr noundef %0) #1 {
  %2 = alloca ptr, align 8
  store ptr %0, ptr %2, align 8
  %3 = load ptr, ptr %2, align 8
  %4 = icmp ne ptr %3, null
  br i1 %4, label %5, label %9

5:                                                ; preds = %1
  %6 = load ptr, ptr %2, align 8
  %7 = getelementptr inbounds nuw %struct.List, ptr %6, i32 0, i32 1
  %8 = load i32, ptr %7, align 4
  br label %10

9:                                                ; preds = %1
  br label %10

10:                                               ; preds = %9, %5
  %11 = phi i32 [ %8, %5 ], [ 0, %9 ]
  ret i32 %11
}

; Function Attrs: nounwind uwtable
define dso_local zeroext i1 @get_restriction_variable(ptr noundef %0, ptr noundef %1, i32 noundef %2, ptr noundef %3, ptr noundef %4, ptr noundef %5) #0 {
  %7 = alloca i1, align 1
  %8 = alloca ptr, align 8
  %9 = alloca ptr, align 8
  %10 = alloca i32, align 4
  %11 = alloca ptr, align 8
  %12 = alloca ptr, align 8
  %13 = alloca ptr, align 8
  %14 = alloca ptr, align 8
  %15 = alloca ptr, align 8
  %16 = alloca %struct.VariableStatData, align 8
  %17 = alloca i32, align 4
  store ptr %0, ptr %8, align 8
  store ptr %1, ptr %9, align 8
  store i32 %2, ptr %10, align 4
  store ptr %3, ptr %11, align 8
  store ptr %4, ptr %12, align 8
  store ptr %5, ptr %13, align 8
  call void @llvm.lifetime.start.p0(i64 8, ptr %14) #10
  call void @llvm.lifetime.start.p0(i64 8, ptr %15) #10
  call void @llvm.lifetime.start.p0(i64 48, ptr %16) #10
  %18 = load ptr, ptr %9, align 8
  %19 = call i32 @list_length(ptr noundef %18)
  %20 = icmp ne i32 %19, 2
  br i1 %20, label %21, label %22

21:                                               ; preds = %6
  store i1 false, ptr %7, align 1
  store i32 1, ptr %17, align 4
  br label %97

22:                                               ; preds = %6
  %23 = load ptr, ptr %9, align 8
  %24 = call ptr @list_nth_cell(ptr noundef %23, i32 noundef 0)
  %25 = load ptr, ptr %24, align 8
  store ptr %25, ptr %14, align 8
  %26 = load ptr, ptr %9, align 8
  %27 = call ptr @list_nth_cell(ptr noundef %26, i32 noundef 1)
  %28 = load ptr, ptr %27, align 8
  store ptr %28, ptr %15, align 8
  %29 = load ptr, ptr %8, align 8
  %30 = load ptr, ptr %14, align 8
  %31 = load i32, ptr %10, align 4
  %32 = load ptr, ptr %11, align 8
  call void @examine_variable(ptr noundef %29, ptr noundef %30, i32 noundef %31, ptr noundef %32)
  %33 = load ptr, ptr %8, align 8
  %34 = load ptr, ptr %15, align 8
  %35 = load i32, ptr %10, align 4
  call void @examine_variable(ptr noundef %33, ptr noundef %34, i32 noundef %35, ptr noundef %16)
  %36 = load ptr, ptr %11, align 8
  %37 = getelementptr inbounds nuw %struct.VariableStatData, ptr %36, i32 0, i32 1
  %38 = load ptr, ptr %37, align 8
  %39 = icmp ne ptr %38, null
  br i1 %39, label %40, label %51

40:                                               ; preds = %22
  %41 = getelementptr inbounds nuw %struct.VariableStatData, ptr %16, i32 0, i32 1
  %42 = load ptr, ptr %41, align 8
  %43 = icmp eq ptr %42, null
  br i1 %43, label %44, label %51

44:                                               ; preds = %40
  %45 = load ptr, ptr %13, align 8
  store i8 1, ptr %45, align 1
  %46 = load ptr, ptr %8, align 8
  %47 = getelementptr inbounds nuw %struct.VariableStatData, ptr %16, i32 0, i32 0
  %48 = load ptr, ptr %47, align 8
  %49 = call ptr @estimate_expression_value(ptr noundef %46, ptr noundef %48)
  %50 = load ptr, ptr %12, align 8
  store ptr %49, ptr %50, align 8
  store i1 true, ptr %7, align 1
  store i32 1, ptr %17, align 4
  br label %97

51:                                               ; preds = %40, %22
  %52 = load ptr, ptr %11, align 8
  %53 = getelementptr inbounds nuw %struct.VariableStatData, ptr %52, i32 0, i32 1
  %54 = load ptr, ptr %53, align 8
  %55 = icmp eq ptr %54, null
  br i1 %55, label %56, label %69

56:                                               ; preds = %51
  %57 = getelementptr inbounds nuw %struct.VariableStatData, ptr %16, i32 0, i32 1
  %58 = load ptr, ptr %57, align 8
  %59 = icmp ne ptr %58, null
  br i1 %59, label %60, label %69

60:                                               ; preds = %56
  %61 = load ptr, ptr %13, align 8
  store i8 0, ptr %61, align 1
  %62 = load ptr, ptr %8, align 8
  %63 = load ptr, ptr %11, align 8
  %64 = getelementptr inbounds nuw %struct.VariableStatData, ptr %63, i32 0, i32 0
  %65 = load ptr, ptr %64, align 8
  %66 = call ptr @estimate_expression_value(ptr noundef %62, ptr noundef %65)
  %67 = load ptr, ptr %12, align 8
  store ptr %66, ptr %67, align 8
  %68 = load ptr, ptr %11, align 8
  call void @llvm.memcpy.p0.p0.i64(ptr align 8 %68, ptr align 8 %16, i64 48, i1 false)
  store i1 true, ptr %7, align 1
  store i32 1, ptr %17, align 4
  br label %97

69:                                               ; preds = %56, %51
  br label %70

70:                                               ; preds = %69
  %71 = load ptr, ptr %11, align 8
  %72 = getelementptr inbounds nuw %struct.VariableStatData, ptr %71, i32 0, i32 2
  %73 = load ptr, ptr %72, align 8
  %74 = icmp ne ptr %73, null
  br i1 %74, label %75, label %82

75:                                               ; preds = %70
  %76 = load ptr, ptr %11, align 8
  %77 = getelementptr inbounds nuw %struct.VariableStatData, ptr %76, i32 0, i32 3
  %78 = load ptr, ptr %77, align 8
  %79 = load ptr, ptr %11, align 8
  %80 = getelementptr inbounds nuw %struct.VariableStatData, ptr %79, i32 0, i32 2
  %81 = load ptr, ptr %80, align 8
  call void %78(ptr noundef %81)
  br label %82

82:                                               ; preds = %75, %70
  br label %83

83:                                               ; preds = %82
  br label %84

84:                                               ; preds = %83
  br label %85

85:                                               ; preds = %84
  %86 = getelementptr inbounds nuw %struct.VariableStatData, ptr %16, i32 0, i32 2
  %87 = load ptr, ptr %86, align 8
  %88 = icmp ne ptr %87, null
  br i1 %88, label %89, label %94

89:                                               ; preds = %85
  %90 = getelementptr inbounds nuw %struct.VariableStatData, ptr %16, i32 0, i32 3
  %91 = load ptr, ptr %90, align 8
  %92 = getelementptr inbounds nuw %struct.VariableStatData, ptr %16, i32 0, i32 2
  %93 = load ptr, ptr %92, align 8
  call void %91(ptr noundef %93)
  br label %94

94:                                               ; preds = %89, %85
  br label %95

95:                                               ; preds = %94
  br label %96

96:                                               ; preds = %95
  store i1 false, ptr %7, align 1
  store i32 1, ptr %17, align 4
  br label %97

97:                                               ; preds = %96, %60, %44, %21
  call void @llvm.lifetime.end.p0(i64 48, ptr %16) #10
  call void @llvm.lifetime.end.p0(i64 8, ptr %15) #10
  call void @llvm.lifetime.end.p0(i64 8, ptr %14) #10
  %98 = load i1, ptr %7, align 1
  ret i1 %98
}