; Function Attrs: nounwind uwtable
define dso_local noundef zeroext i1 @get_restriction_variable(ptr noundef %0, ptr noundef readonly captures(address_is_null) %1, i32 noundef %2, ptr noundef %3, ptr noundef writeonly captures(none) %4, ptr noundef writeonly captures(none) %5) local_unnamed_addr #0 {
  %7 = alloca %struct.VariableStatData, align 8
  call void @llvm.lifetime.start.p0(i64 48, ptr nonnull %7) #12
  %.not.i = icmp eq ptr %1, null
  br i1 %.not.i, label %list_length.exit.thread, label %list_length.exit

list_length.exit:                                 ; preds = %6
  %8 = getelementptr inbounds nuw i8, ptr %1, i64 4
  %9 = load i32, ptr %8, align 4
  %.not = icmp eq i32 %9, 2
  br i1 %.not, label %10, label %list_length.exit.thread

10:                                               ; preds = %list_length.exit
  %11 = getelementptr i8, ptr %1, i64 16
  %.val = load ptr, ptr %11, align 8
  %12 = load ptr, ptr %.val, align 8
  %13 = getelementptr inbounds nuw i8, ptr %.val, i64 8
  %14 = load ptr, ptr %13, align 8
  tail call void @examine_variable(ptr noundef %0, ptr noundef %12, i32 noundef %2, ptr noundef %3)
  call void @examine_variable(ptr noundef %0, ptr noundef %14, i32 noundef %2, ptr noundef nonnull %7)
  %15 = getelementptr inbounds nuw i8, ptr %3, i64 8
  %16 = load ptr, ptr %15, align 8
  %17 = icmp ne ptr %16, null
  %18 = getelementptr inbounds nuw i8, ptr %7, i64 8
  %19 = load ptr, ptr %18, align 8
  %20 = icmp eq ptr %19, null
  %or.cond = select i1 %17, i1 %20, i1 false
  br i1 %or.cond, label %21, label %24

21:                                               ; preds = %10
  store i8 1, ptr %5, align 1
  %22 = load ptr, ptr %7, align 8
  %23 = call ptr @estimate_expression_value(ptr noundef %0, ptr noundef %22) #12
  store ptr %23, ptr %4, align 8
  br label %list_length.exit.thread

24:                                               ; preds = %10
  %25 = icmp eq ptr %16, null
  %26 = icmp ne ptr %19, null
  %or.cond5 = select i1 %25, i1 %26, i1 false
  br i1 %or.cond5, label %27, label %30

27:                                               ; preds = %24
  store i8 0, ptr %5, align 1
  %28 = load ptr, ptr %3, align 8
  %29 = call ptr @estimate_expression_value(ptr noundef %0, ptr noundef %28) #12
  store ptr %29, ptr %4, align 8
  call void @llvm.memcpy.p0.p0.i64(ptr noundef nonnull align 8 dereferenceable(48) %3, ptr noundef nonnull align 8 dereferenceable(48) %7, i64 48, i1 false)
  br label %list_length.exit.thread

30:                                               ; preds = %24
  %31 = getelementptr inbounds nuw i8, ptr %3, i64 16
  %32 = load ptr, ptr %31, align 8
  %.not30 = icmp eq ptr %32, null
  br i1 %.not30, label %36, label %33

33:                                               ; preds = %30
  %34 = getelementptr inbounds nuw i8, ptr %3, i64 24
  %35 = load ptr, ptr %34, align 8
  call void %35(ptr noundef nonnull %32) #12
  br label %36

36:                                               ; preds = %30, %33
  %37 = getelementptr inbounds nuw i8, ptr %7, i64 16
  %38 = load ptr, ptr %37, align 8
  %.not31 = icmp eq ptr %38, null
  br i1 %.not31, label %list_length.exit.thread, label %39

39:                                               ; preds = %36
  %40 = getelementptr inbounds nuw i8, ptr %7, i64 24
  %41 = load ptr, ptr %40, align 8
  call void %41(ptr noundef nonnull %38) #12
  br label %list_length.exit.thread

list_length.exit.thread:                          ; preds = %6, %36, %39, %list_length.exit, %27, %21
  %.0 = phi i1 [ true, %21 ], [ true, %27 ], [ false, %list_length.exit ], [ false, %39 ], [ false, %36 ], [ false, %6 ]
  call void @llvm.lifetime.end.p0(i64 48, ptr nonnull %7) #12
  ret i1 %.0
}